target datalayout = "e-m:e-p270:32:32-p271:32:32-p272:64:64-i64:64-i128:128-f80:128-n8:16:32:64-S128"
target triple = "x86_64-unknown-linux-gnu"

%struct.b2Vec2 = type { float, float }
%struct.b2JointUserData = type { i64 }
%class.b2Body = type { i32, i16, i32, %struct.b2Transform, %struct.b2Sweep, %struct.b2Vec2, float, %struct.b2Vec2, float, ptr, ptr, ptr, ptr, i32, ptr, ptr, float, float, float, float, float, float, float, float, %struct.b2BodyUserData }
%struct.b2Transform = type { %struct.b2Vec2, %struct.b2Rot }
%struct.b2Rot = type { float, float }
%struct.b2Sweep = type { %struct.b2Vec2, %struct.b2Vec2, %struct.b2Vec2, float, float, float }
%struct.b2BodyUserData = type { i64 }
%class.b2WheelJoint = type <{ %class.b2Joint, %struct.b2Vec2, %struct.b2Vec2, %struct.b2Vec2, %struct.b2Vec2, float, float, float, float, float, float, float, float, float, float, i8, i8, [2 x i8], float, float, i32, i32, %struct.b2Vec2, %struct.b2Vec2, float, float, float, float, %struct.b2Vec2, %struct.b2Vec2, float, float, float, float, float, float, float, float, float, float, [4 x i8] }>
%class.b2Joint = type { ptr, i32, ptr, ptr, %struct.b2JointEdge, %struct.b2JointEdge, ptr, ptr, i32, i8, i8, %struct.b2JointUserData }
%struct.b2JointEdge = type { ptr, ptr, ptr, ptr }

; Function Attrs: mustprogress nounwind uwtable
define linkonce_odr hidden void @_ZN6b2Vec27SetZeroEv(ptr noundef nonnull align 4 dereferenceable(8) %this) #3 comdat align 2 {
entry:
  %this.addr = alloca ptr, align 8
  store ptr %this, ptr %this.addr, align 8
  %this1 = load ptr, ptr %this.addr, align 8
  %x = getelementptr inbounds %struct.b2Vec2, ptr %this1, i32 0, i32 0
  store float 0.000000e+00, ptr %x, align 4
  %y = getelementptr inbounds %struct.b2Vec2, ptr %this1, i32 0, i32 1
  store float 0.000000e+00, ptr %y, align 4
  ret void
}

; Function Attrs: mustprogress nounwind uwtable
define linkonce_odr hidden void @_ZN6b2Body8SetAwakeEb(ptr noundef nonnull align 8 dereferenceable(184) %this, i1 noundef zeroext %flag) #3 comdat align 2 {
entry:
  %this.addr = alloca ptr, align 8
  %flag.addr = alloca i8, align 1
  store ptr %this, ptr %this.addr, align 8
  %frombool = zext i1 %flag to i8
  store i8 %frombool, ptr %flag.addr, align 1
  %this1 = load ptr, ptr %this.addr, align 8
  %m_type = getelementptr inbounds %class.b2Body, ptr %this1, i32 0, i32 0
  %0 = load i32, ptr %m_type, align 8
  %cmp = icmp eq i32 %0, 0
  br i1 %cmp, label %if.then, label %if.end

if.then:                                          ; preds = %entry
  br label %if.end8

if.end:                                           ; preds = %entry
  %1 = load i8, ptr %flag.addr, align 1
  %tobool = trunc i8 %1 to i1
  br i1 %tobool, label %if.then2, label %if.else

if.then2:                                         ; preds = %if.end
  %m_flags = getelementptr inbounds %class.b2Body, ptr %this1, i32 0, i32 1
  %2 = load i16, ptr %m_flags, align 4
  %conv = zext i16 %2 to i32
  %or = or i32 %conv, 2
  %conv3 = trunc i32 %or to i16
  store i16 %conv3, ptr %m_flags, align 4
  %m_sleepTime = getelementptr inbounds %class.b2Body, ptr %this1, i32 0, i32 23
  store float 0.000000e+00, ptr %m_sleepTime, align 4
  br label %if.end8

if.else:                                          ; preds = %if.end
  %m_flags4 = getelementptr inbounds %class.b2Body, ptr %this1, i32 0, i32 1
  %3 = load i16, ptr %m_flags4, align 4
  %conv5 = zext i16 %3 to i32
  %and = and i32 %conv5, -3
  %conv6 = trunc i32 %and to i16
  store i16 %conv6, ptr %m_flags4, align 4
  %m_sleepTime7 = getelementptr inbounds %class.b2Body, ptr %this1, i32 0, i32 23
  store float 0.000000e+00, ptr %m_sleepTime7, align 4
  %m_linearVelocity = getelementptr inbounds %class.b2Body, ptr %this1, i32 0, i32 5
  call void @_ZN6b2Vec27SetZeroEv(ptr noundef nonnull align 4 dereferenceable(8) %m_linearVelocity)
  %m_angularVelocity = getelementptr inbounds %class.b2Body, ptr %this1, i32 0, i32 6
  store float 0.000000e+00, ptr %m_angularVelocity, align 8
  %m_force = getelementptr inbounds %class.b2Body, ptr %this1, i32 0, i32 7
  call void @_ZN6b2Vec27SetZeroEv(ptr noundef nonnull align 4 dereferenceable(8) %m_force)
  %m_torque = getelementptr inbounds %class.b2Body, ptr %this1, i32 0, i32 8
  store float 0.000000e+00, ptr %m_torque, align 4
  br label %if.end8

if.end8:                                          ; preds = %if.else, %if.then2, %if.then
  ret void
}

; Function Attrs: mustprogress uwtable
define void @_ZN12b2WheelJoint17SetMaxMotorTorqueEf(ptr noundef nonnull align 8 dereferenceable(308) %this, float noundef %torque) #5 align 2 {
entry:
  %this.addr = alloca ptr, align 8
  %torque.addr = alloca float, align 4
  store ptr %this, ptr %this.addr, align 8
  store float %torque, ptr %torque.addr, align 4
  %this1 = load ptr, ptr %this.addr, align 8
  %0 = load float, ptr %torque.addr, align 4
  %m_maxMotorTorque = getelementptr inbounds %class.b2WheelJoint, ptr %this1, i32 0, i32 13
  %1 = load float, ptr %m_maxMotorTorque, align 8
  %cmp = fcmp une float %0, %1
  br i1 %cmp, label %if.then, label %if.end

if.then:                                          ; preds = %entry
  %m_bodyA = getelementptr inbounds %class.b2Joint, ptr %this1, i32 0, i32 6
  %2 = load ptr, ptr %m_bodyA, align 8
  call void @_ZN6b2Body8SetAwakeEb(ptr noundef nonnull align 8 dereferenceable(184) %2, i1 noundef zeroext true)
  %m_bodyB = getelementptr inbounds %class.b2Joint, ptr %this1, i32 0, i32 7
  %3 = load ptr, ptr %m_bodyB, align 8
  call void @_ZN6b2Body8SetAwakeEb(ptr noundef nonnull align 8 dereferenceable(184) %3, i1 noundef zeroext true)
  %4 = load float, ptr %torque.addr, align 4
  %m_maxMotorTorque2 = getelementptr inbounds %class.b2WheelJoint, ptr %this1, i32 0, i32 13
  store float %4, ptr %m_maxMotorTorque2, align 8
  br label %if.end

if.end:                                           ; preds = %if.then, %entry
  ret void
}